target datalayout = "e-m:e-p270:32:32-p271:32:32-p272:64:64-i64:64-i128:128-f80:128-n8:16:32:64-S128"
target triple = "x86_64-pc-linux-gnu"

%struct.slurm_conf_t = type { i64, ptr, i16, ptr, ptr, ptr, ptr, ptr, i16, ptr, ptr, ptr, ptr, ptr, ptr, ptr, i16, ptr, ptr, ptr, ptr, i16, ptr, ptr, ptr, i64, ptr, ptr, ptr, ptr, i16, ptr, ptr, i16, i32, ptr, i32, ptr, i32, i32, ptr, ptr, i64, i64, ptr, i16, i16, ptr, i32, i32, ptr, i32, ptr, i32, i16, i16, i16, ptr, i16, i16, ptr, ptr, i32, i16, i16, ptr, i32, i16, ptr, ptr, ptr, ptr, i16, ptr, ptr, ptr, ptr, i32, ptr, ptr, ptr, ptr, i16, i16, ptr, i32, i32, i32, i16, i16, ptr, ptr, i16, ptr, ptr, i32, i32, i32, i32, i32, i64, i32, i32, i16, ptr, ptr, i32, ptr, ptr, ptr, i16, i32, ptr, ptr, i16, ptr, ptr, i32, i16, ptr, ptr, ptr, ptr, i32, i32, i16, i16, i32, ptr, i16, ptr, i32, i32, i32, i32, i32, i32, ptr, i16, ptr, ptr, i32, i16, ptr, i32, i16, i16, ptr, ptr, ptr, i16, ptr, ptr, ptr, ptr, i16, i16, ptr, i16, ptr, i16, ptr, i16, ptr, i16, ptr, ptr, ptr, ptr, i16, ptr, ptr, ptr, i32, ptr, i32, ptr, ptr, i16, ptr, ptr, i32, i16, ptr, ptr, i16, i16, ptr, i16, ptr, ptr, ptr, i32, ptr, i16, i16, ptr, ptr, ptr, ptr, ptr, ptr, ptr, ptr, i16, i32, i16, ptr, ptr, ptr, ptr, i32, ptr, ptr, ptr, i16, ptr, ptr, ptr, i16, ptr, i16, ptr, i16, i16, ptr }
%union.pthread_mutex_t = type { %struct.__pthread_mutex_s }
%struct.__pthread_mutex_s = type { i32, i32, i32, i32, i32, i16, i16, %struct.__pthread_internal_list }
%struct.__pthread_internal_list = type { ptr, ptr }
%struct.slurmdbd_conn_t = type { ptr, ptr, %union.pthread_mutex_t, ptr, ptr }
%struct.persist_conn_t = type { ptr, i32, i32, i8, ptr, ptr, ptr, i64, i16, i32, i16, i8, i32, i32, ptr, i16, ptr, i64, i32, ptr, %struct.slurm_trigger_callbacks_t, i16 }
%struct.slurm_trigger_callbacks_t = type { ptr, ptr, ptr, ptr, ptr }
%struct.persist_msg_t = type { ptr, ptr, i16 }
%struct.dbd_list_msg_t = type { ptr, i32 }
%struct.buf_t = type { i32, ptr, i32, i32, i8, i8 }

@slurm_conf = external global %struct.slurm_conf_t, align 8
@.str.62 = private unnamed_addr constant [6 x i8] c"%s %u\00", align 1
@.str.142 = private unnamed_addr constant [43 x i8] c"DBD_SEND_MULT_MSG message from invalid uid\00", align 1

; Function Attrs: nounwind uwtable
define internal zeroext i1 @_validate_slurm_user(ptr noundef %0) #0 {
  %2 = alloca i1, align 1
  %3 = alloca ptr, align 8
  %4 = alloca i32, align 4
  %5 = alloca i32, align 4
  store ptr %0, ptr %3, align 8
  call void @llvm.lifetime.start.p0(i64 4, ptr %4) #8
  %6 = load ptr, ptr %3, align 8
  %7 = getelementptr inbounds nuw %struct.slurmdbd_conn_t, ptr %6, i32 0, i32 0
  %8 = load ptr, ptr %7, align 8
  %9 = getelementptr inbounds nuw %struct.persist_conn_t, ptr %8, i32 0, i32 1
  %10 = load i32, ptr %9, align 8
  store i32 %10, ptr %4, align 4
  %11 = load i32, ptr %4, align 4
  %12 = icmp eq i32 %11, 0
  br i1 %12, label %17, label %13

13:                                               ; preds = %1
  %14 = load i32, ptr %4, align 4
  %15 = load i32, ptr getelementptr inbounds nuw (%struct.slurm_conf_t, ptr @slurm_conf, i32 0, i32 173), align 8
  %16 = icmp eq i32 %14, %15
  br i1 %16, label %17, label %18

17:                                               ; preds = %13, %1
  store i1 true, ptr %2, align 1
  store i32 1, ptr %5, align 4
  br label %19

18:                                               ; preds = %13
  store i1 false, ptr %2, align 1
  store i32 1, ptr %5, align 4
  br label %19

19:                                               ; preds = %18, %17
  call void @llvm.lifetime.end.p0(i64 4, ptr %4) #8
  %20 = load i1, ptr %2, align 1
  ret i1 %20
}

; Function Attrs: nounwind uwtable
define internal i32 @_send_mult_msg(ptr noundef %0, ptr noundef %1, ptr noundef %2) #0 {
  %4 = alloca i32, align 4
  %5 = alloca ptr, align 8
  %6 = alloca ptr, align 8
  %7 = alloca ptr, align 8
  %8 = alloca ptr, align 8
  %9 = alloca %struct.dbd_list_msg_t, align 8
  %10 = alloca ptr, align 8
  %11 = alloca ptr, align 8
  %12 = alloca ptr, align 8
  %13 = alloca ptr, align 8
  %14 = alloca i32, align 4
  %15 = alloca i32, align 4
  %16 = alloca %struct.persist_msg_t, align 8
  store ptr %0, ptr %5, align 8
  store ptr %1, ptr %6, align 8
  store ptr %2, ptr %7, align 8
  call void @llvm.lifetime.start.p0(i64 8, ptr %8) #8
  %17 = load ptr, ptr %6, align 8
  %18 = getelementptr inbounds nuw %struct.persist_msg_t, ptr %17, i32 0, i32 1
  %19 = load ptr, ptr %18, align 8
  store ptr %19, ptr %8, align 8
  call void @llvm.lifetime.start.p0(i64 16, ptr %9) #8
  call void @llvm.memset.p0.i64(ptr align 8 %9, i8 0, i64 16, i1 false)
  call void @llvm.lifetime.start.p0(i64 8, ptr %10) #8
  store ptr null, ptr %10, align 8
  call void @llvm.lifetime.start.p0(i64 8, ptr %11) #8
  store ptr null, ptr %11, align 8
  call void @llvm.lifetime.start.p0(i64 8, ptr %12) #8
  store ptr null, ptr %12, align 8
  call void @llvm.lifetime.start.p0(i64 8, ptr %13) #8
  store ptr null, ptr %13, align 8
  call void @llvm.lifetime.start.p0(i64 4, ptr %14) #8
  store i32 0, ptr %14, align 4
  %20 = load ptr, ptr %5, align 8
  %21 = call zeroext i1 @_validate_slurm_user(ptr noundef %20)
  br i1 %21, label %36, label %22

22:                                               ; preds = %3
  store ptr @.str.142, ptr %10, align 8
  %23 = load ptr, ptr %10, align 8
  %24 = load ptr, ptr %5, align 8
  %25 = getelementptr inbounds nuw %struct.slurmdbd_conn_t, ptr %24, i32 0, i32 0
  %26 = load ptr, ptr %25, align 8
  %27 = getelementptr inbounds nuw %struct.persist_conn_t, ptr %26, i32 0, i32 1
  %28 = load i32, ptr %27, align 8
  %29 = call i32 (ptr, ...) @error(ptr noundef @.str.62, ptr noundef %23, i32 noundef %28)
  %30 = load ptr, ptr %5, align 8
  %31 = getelementptr inbounds nuw %struct.slurmdbd_conn_t, ptr %30, i32 0, i32 0
  %32 = load ptr, ptr %31, align 8
  %33 = load ptr, ptr %10, align 8
  %34 = call ptr @slurm_persist_make_rc_msg(ptr noundef %32, i32 noundef 2002, ptr noundef %33, i16 noundef zeroext 1474)
  %35 = load ptr, ptr %7, align 8
  store ptr %34, ptr %35, align 8
  store i32 -1, ptr %4, align 4
  store i32 1, ptr %15, align 4
  br label %105

36:                                               ; preds = %3
  %37 = call ptr @list_create(ptr noundef @slurmdbd_free_buffer)
  %38 = getelementptr inbounds nuw %struct.dbd_list_msg_t, ptr %9, i32 0, i32 0
  store ptr %37, ptr %38, align 8
  %39 = load ptr, ptr %8, align 8
  %40 = getelementptr inbounds nuw %struct.dbd_list_msg_t, ptr %39, i32 0, i32 0
  %41 = load ptr, ptr %40, align 8
  %42 = call ptr @list_iterator_create(ptr noundef %41)
  store ptr %42, ptr %11, align 8
  br label %43

43:                                               ; preds = %80, %36
  %44 = load ptr, ptr %11, align 8
  %45 = call ptr @list_next(ptr noundef %44)
  store ptr %45, ptr %12, align 8
  %46 = icmp ne ptr %45, null
  br i1 %46, label %47, label %81

47:                                               ; preds = %43
  call void @llvm.lifetime.start.p0(i64 24, ptr %16) #8
  store ptr null, ptr %13, align 8
  %48 = load ptr, ptr %5, align 8
  %49 = getelementptr inbounds nuw %struct.slurmdbd_conn_t, ptr %48, i32 0, i32 0
  %50 = load ptr, ptr %49, align 8
  %51 = load ptr, ptr %12, align 8
  %52 = getelementptr inbounds nuw %struct.buf_t, ptr %51, i32 0, i32 1
  %53 = load ptr, ptr %52, align 8
  %54 = load ptr, ptr %12, align 8
  %55 = getelementptr inbounds nuw %struct.buf_t, ptr %54, i32 0, i32 2
  %56 = load i32, ptr %55, align 8
  %57 = call i32 @slurm_persist_conn_process_msg(ptr noundef %50, ptr noundef %16, ptr noundef %53, i32 noundef %56, ptr noundef %13, i1 noundef zeroext false)
  store i32 %57, ptr %14, align 4
  %58 = load i32, ptr %14, align 4
  %59 = icmp eq i32 %58, 0
  br i1 %59, label %60, label %63

60:                                               ; preds = %47
  %61 = load ptr, ptr %5, align 8
  %62 = call i32 @proc_req(ptr noundef %61, ptr noundef %16, ptr noundef %13)
  store i32 %62, ptr %14, align 4
  call void @slurmdbd_free_msg(ptr noundef %16)
  br label %63

63:                                               ; preds = %60, %47
  %64 = load ptr, ptr %13, align 8
  %65 = icmp ne ptr %64, null
  br i1 %65, label %66, label %70

66:                                               ; preds = %63
  %67 = getelementptr inbounds nuw %struct.dbd_list_msg_t, ptr %9, i32 0, i32 0
  %68 = load ptr, ptr %67, align 8
  %69 = load ptr, ptr %13, align 8
  call void @list_append(ptr noundef %68, ptr noundef %69)
  br label %70

70:                                               ; preds = %66, %63
  %71 = load i32, ptr %14, align 4
  %72 = icmp ne i32 %71, 0
  br i1 %72, label %73, label %77

73:                                               ; preds = %70
  %74 = load i32, ptr %14, align 4
  %75 = icmp ne i32 %74, 1900
  br i1 %75, label %76, label %77

76:                                               ; preds = %73
  store i32 3, ptr %15, align 4
  br label %78

77:                                               ; preds = %73, %70
  store i32 0, ptr %15, align 4
  br label %78

78:                                               ; preds = %77, %76
  call void @llvm.lifetime.end.p0(i64 24, ptr %16) #8
  %79 = load i32, ptr %15, align 4
  switch i32 %79, label %107 [
    i32 0, label %80
    i32 3, label %81
  ]

80:                                               ; preds = %78
  br label %43, !llvm.loop !15

81:                                               ; preds = %78, %43
  %82 = load ptr, ptr %11, align 8
  call void @list_iterator_destroy(ptr noundef %82)
  %83 = call ptr @init_buf(i32 noundef 1024)
  %84 = load ptr, ptr %7, align 8
  store ptr %83, ptr %84, align 8
  %85 = load ptr, ptr %7, align 8
  %86 = load ptr, ptr %85, align 8
  call void @pack16(i16 noundef zeroext 1475, ptr noundef %86)
  %87 = load ptr, ptr %5, align 8
  %88 = getelementptr inbounds nuw %struct.slurmdbd_conn_t, ptr %87, i32 0, i32 0
  %89 = load ptr, ptr %88, align 8
  %90 = getelementptr inbounds nuw %struct.persist_conn_t, ptr %89, i32 0, i32 21
  %91 = load i16, ptr %90, align 8
  %92 = load ptr, ptr %7, align 8
  %93 = load ptr, ptr %92, align 8
  call void @slurmdbd_pack_list_msg(ptr noundef %9, i16 noundef zeroext %91, i32 noundef 1475, ptr noundef %93)
  br label %94

94:                                               ; preds = %81
  %95 = getelementptr inbounds nuw %struct.dbd_list_msg_t, ptr %9, i32 0, i32 0
  %96 = load ptr, ptr %95, align 8
  %97 = icmp ne ptr %96, null
  br i1 %97, label %98, label %101

98:                                               ; preds = %94
  %99 = getelementptr inbounds nuw %struct.dbd_list_msg_t, ptr %9, i32 0, i32 0
  %100 = load ptr, ptr %99, align 8
  call void @list_destroy(ptr noundef %100)
  br label %101

101:                                              ; preds = %98, %94
  %102 = getelementptr inbounds nuw %struct.dbd_list_msg_t, ptr %9, i32 0, i32 0
  store ptr null, ptr %102, align 8
  br label %103

103:                                              ; preds = %101
  br label %104

104:                                              ; preds = %103
  store i32 0, ptr %4, align 4
  store i32 1, ptr %15, align 4
  br label %105

105:                                              ; preds = %104, %22
  call void @llvm.lifetime.end.p0(i64 4, ptr %14) #8
  call void @llvm.lifetime.end.p0(i64 8, ptr %13) #8
  call void @llvm.lifetime.end.p0(i64 8, ptr %12) #8
  call void @llvm.lifetime.end.p0(i64 8, ptr %11) #8
  call void @llvm.lifetime.end.p0(i64 8, ptr %10) #8
  call void @llvm.lifetime.end.p0(i64 16, ptr %9) #8
  call void @llvm.lifetime.end.p0(i64 8, ptr %8) #8
  %106 = load i32, ptr %4, align 4
  ret i32 %106

107:                                              ; preds = %78
  unreachable
}