; Function Attrs: nounwind uwtable
define internal fastcc range(i32 -1, 1) i32 @_send_mult_msg(ptr noundef %0, ptr noundef readonly captures(none) %1, ptr noundef captures(none) %2) unnamed_addr #0 {
  %4 = alloca %struct.dbd_list_msg_t, align 8
  %5 = alloca ptr, align 8
  %6 = alloca %struct.persist_msg_t, align 8
  %7 = getelementptr inbounds nuw i8, ptr %1, i64 8
  %8 = load ptr, ptr %7, align 8
  call void @llvm.lifetime.start.p0(i64 16, ptr nonnull %4) #10
  %9 = getelementptr inbounds nuw i8, ptr %4, i64 8
  store i64 0, ptr %9, align 8
  call void @llvm.lifetime.start.p0(i64 8, ptr nonnull %5) #10
  store ptr null, ptr %5, align 8
  %.val = load ptr, ptr %0, align 8
  %10 = getelementptr i8, ptr %.val, i64 8
  %.val.val = load i32, ptr %10, align 8
  %11 = icmp eq i32 %.val.val, 0
  %12 = load i32, ptr getelementptr inbounds nuw (i8, ptr @slurm_conf, i64 1152), align 8
  %13 = icmp eq i32 %.val.val, %12
  %or.cond.i = select i1 %11, i1 true, i1 %13
  br i1 %or.cond.i, label %18, label %14

14:                                               ; preds = %3
  %15 = tail call i32 (ptr, ...) @error(ptr noundef nonnull @.str.62, ptr noundef nonnull @.str.142, i32 noundef %.val.val) #10
  %16 = load ptr, ptr %0, align 8
  %17 = tail call ptr @slurm_persist_make_rc_msg(ptr noundef %16, i32 noundef 2002, ptr noundef nonnull @.str.142, i16 noundef zeroext 1474) #10
  store ptr %17, ptr %2, align 8
  br label %45

18:                                               ; preds = %3
  %19 = tail call ptr @list_create(ptr noundef nonnull @slurmdbd_free_buffer) #10
  store ptr %19, ptr %4, align 8
  %20 = load ptr, ptr %8, align 8
  %21 = tail call ptr @list_iterator_create(ptr noundef %20) #10
  %22 = tail call ptr @list_next(ptr noundef %21) #10
  %.not31 = icmp eq ptr %22, null
  br i1 %.not31, label %._crit_edge, label %.lr.ph

.lr.ph:                                           ; preds = %18, %.backedge
  %23 = phi ptr [ %37, %.backedge ], [ %22, %18 ]
  call void @llvm.lifetime.start.p0(i64 24, ptr nonnull %6) #10
  store ptr null, ptr %5, align 8
  %24 = load ptr, ptr %0, align 8
  %25 = getelementptr inbounds nuw i8, ptr %23, i64 8
  %26 = load ptr, ptr %25, align 8
  %27 = getelementptr inbounds nuw i8, ptr %23, i64 16
  %28 = load i32, ptr %27, align 8
  %29 = call i32 @slurm_persist_conn_process_msg(ptr noundef %24, ptr noundef nonnull %6, ptr noundef %26, i32 noundef %28, ptr noundef nonnull %5, i1 noundef zeroext false) #10
  %30 = icmp eq i32 %29, 0
  br i1 %30, label %31, label %33

31:                                               ; preds = %.lr.ph
  %32 = call i32 @proc_req(ptr noundef nonnull %0, ptr noundef nonnull %6, ptr noundef nonnull %5)
  call void @slurmdbd_free_msg(ptr noundef nonnull %6) #10
  br label %33

33:                                               ; preds = %31, %.lr.ph
  %.023 = phi i32 [ %32, %31 ], [ %29, %.lr.ph ]
  %34 = load ptr, ptr %5, align 8
  %.not29 = icmp eq ptr %34, null
  br i1 %.not29, label %36, label %35

35:                                               ; preds = %33
  call void @list_append(ptr noundef %19, ptr noundef nonnull %34) #10
  br label %36

36:                                               ; preds = %35, %33
  call void @llvm.lifetime.end.p0(i64 24, ptr nonnull %6) #10
  switch i32 %.023, label %._crit_edge [
    i32 1900, label %.backedge
    i32 0, label %.backedge
  ]

.backedge:                                        ; preds = %36, %36
  %37 = call ptr @list_next(ptr noundef %21) #10
  %.not = icmp eq ptr %37, null
  br i1 %.not, label %._crit_edge, label %.lr.ph

._crit_edge:                                      ; preds = %.backedge, %36, %18
  call void @list_iterator_destroy(ptr noundef %21) #10
  %38 = call ptr @init_buf(i32 noundef 1024) #10
  store ptr %38, ptr %2, align 8
  call void @pack16(i16 noundef zeroext 1475, ptr noundef %38) #10
  %39 = load ptr, ptr %0, align 8
  %40 = getelementptr inbounds nuw i8, ptr %39, i64 168
  %41 = load i16, ptr %40, align 8
  %42 = load ptr, ptr %2, align 8
  call void @slurmdbd_pack_list_msg(ptr noundef nonnull %4, i16 noundef zeroext %41, i32 noundef 1475, ptr noundef %42) #10
  %43 = load ptr, ptr %4, align 8
  %.not30 = icmp eq ptr %43, null
  br i1 %.not30, label %45, label %44

44:                                               ; preds = %._crit_edge
  call void @list_destroy(ptr noundef nonnull %43) #10
  br label %45

45:                                               ; preds = %._crit_edge, %44, %14
  %.024 = phi i32 [ -1, %14 ], [ 0, %44 ], [ 0, %._crit_edge ]
  call void @llvm.lifetime.end.p0(i64 8, ptr nonnull %5) #10
  call void @llvm.lifetime.end.p0(i64 16, ptr nonnull %4) #10
  ret i32 %.024
}